target datalayout = "e-m:e-p270:32:32-p271:32:32-p272:64:64-i64:64-i128:128-f80:128-n8:16:32:64-S128"
target triple = "x86_64-pc-linux-gnu"

%class.ezSAT = type <{ ptr, i8, i8, i8, [5 x i8], %"class.std::map", %"class.std::vector", %"class.std::map.3", %"class.std::vector.9", i8, [3 x i8], i32, i32, [4 x i8], %"class.std::vector.14", %"class.std::vector.14", %"class.std::vector.19", %"class.std::vector.19", i32, i8, [3 x i8], i32, [4 x i8] }>
%"class.std::map" = type { %"class.std::_Rb_tree" }
%"class.std::_Rb_tree" = type { %"struct.std::_Rb_tree<std::__cxx11::basic_string<char>, std::pair<const std::__cxx11::basic_string<char>, int>, std::_Select1st<std::pair<const std::__cxx11::basic_string<char>, int>>, std::less<std::__cxx11::basic_string<char>>>::_Rb_tree_impl" }
%"struct.std::_Rb_tree<std::__cxx11::basic_string<char>, std::pair<const std::__cxx11::basic_string<char>, int>, std::_Select1st<std::pair<const std::__cxx11::basic_string<char>, int>>, std::less<std::__cxx11::basic_string<char>>>::_Rb_tree_impl" = type { [8 x i8], %"struct.std::_Rb_tree_header" }
%"struct.std::_Rb_tree_header" = type { %"struct.std::_Rb_tree_node_base", i64 }
%"struct.std::_Rb_tree_node_base" = type { i32, ptr, ptr, ptr }
%"class.std::vector" = type { %"struct.std::_Vector_base" }
%"struct.std::_Vector_base" = type { %"struct.std::_Vector_base<std::__cxx11::basic_string<char>, std::allocator<std::__cxx11::basic_string<char>>>::_Vector_impl" }
%"struct.std::_Vector_base<std::__cxx11::basic_string<char>, std::allocator<std::__cxx11::basic_string<char>>>::_Vector_impl" = type { %"struct.std::_Vector_base<std::__cxx11::basic_string<char>, std::allocator<std::__cxx11::basic_string<char>>>::_Vector_impl_data" }
%"struct.std::_Vector_base<std::__cxx11::basic_string<char>, std::allocator<std::__cxx11::basic_string<char>>>::_Vector_impl_data" = type { ptr, ptr, ptr }
%"class.std::map.3" = type { %"class.std::_Rb_tree.4" }
%"class.std::_Rb_tree.4" = type { %"struct.std::_Rb_tree<std::pair<ezSAT::OpId, std::vector<int>>, std::pair<const std::pair<ezSAT::OpId, std::vector<int>>, int>, std::_Select1st<std::pair<const std::pair<ezSAT::OpId, std::vector<int>>, int>>, std::less<std::pair<ezSAT::OpId, std::vector<int>>>>::_Rb_tree_impl" }
%"struct.std::_Rb_tree<std::pair<ezSAT::OpId, std::vector<int>>, std::pair<const std::pair<ezSAT::OpId, std::vector<int>>, int>, std::_Select1st<std::pair<const std::pair<ezSAT::OpId, std::vector<int>>, int>>, std::less<std::pair<ezSAT::OpId, std::vector<int>>>>::_Rb_tree_impl" = type { [8 x i8], %"struct.std::_Rb_tree_header" }
%"class.std::vector.9" = type { %"struct.std::_Vector_base.10" }
%"struct.std::_Vector_base.10" = type { %"struct.std::_Vector_base<std::pair<ezSAT::OpId, std::vector<int>>, std::allocator<std::pair<ezSAT::OpId, std::vector<int>>>>::_Vector_impl" }
%"struct.std::_Vector_base<std::pair<ezSAT::OpId, std::vector<int>>, std::allocator<std::pair<ezSAT::OpId, std::vector<int>>>>::_Vector_impl" = type { %"struct.std::_Vector_base<std::pair<ezSAT::OpId, std::vector<int>>, std::allocator<std::pair<ezSAT::OpId, std::vector<int>>>>::_Vector_impl_data" }
%"struct.std::_Vector_base<std::pair<ezSAT::OpId, std::vector<int>>, std::allocator<std::pair<ezSAT::OpId, std::vector<int>>>>::_Vector_impl_data" = type { ptr, ptr, ptr }
%"class.std::vector.14" = type { %"struct.std::_Vector_base.15" }
%"struct.std::_Vector_base.15" = type { %"struct.std::_Vector_base<int, std::allocator<int>>::_Vector_impl" }
%"struct.std::_Vector_base<int, std::allocator<int>>::_Vector_impl" = type { %"struct.std::_Vector_base<int, std::allocator<int>>::_Vector_impl_data" }
%"struct.std::_Vector_base<int, std::allocator<int>>::_Vector_impl_data" = type { ptr, ptr, ptr }
%"class.std::vector.19" = type { %"struct.std::_Vector_base.20" }
%"struct.std::_Vector_base.20" = type { %"struct.std::_Vector_base<std::vector<int>, std::allocator<std::vector<int>>>::_Vector_impl" }
%"struct.std::_Vector_base<std::vector<int>, std::allocator<std::vector<int>>>::_Vector_impl" = type { %"struct.std::_Vector_base<std::vector<int>, std::allocator<std::vector<int>>>::_Vector_impl_data" }
%"struct.std::_Vector_base<std::vector<int>, std::allocator<std::vector<int>>>::_Vector_impl_data" = type { ptr, ptr, ptr }
%"struct.std::pair" = type { i32, %"class.std::vector.14" }

; Function Attrs: mustprogress nounwind uwtable
define linkonce_odr noundef nonnull align 8 dereferenceable(32) ptr @_ZNKSt6vectorISt4pairIN5ezSAT4OpIdES_IiSaIiEEESaIS5_EEixEm(ptr noundef nonnull align 8 dereferenceable(24) %0, i64 noundef %1) #1 comdat align 2 {
  %3 = alloca ptr, align 8
  %4 = alloca i64, align 8
  store ptr %0, ptr %3, align 8, !tbaa !66
  store i64 %1, ptr %4, align 8, !tbaa !97
  %5 = load ptr, ptr %3, align 8
  %6 = getelementptr inbounds nuw %"struct.std::_Vector_base.10", ptr %5, i32 0, i32 0
  %7 = getelementptr inbounds nuw %"struct.std::_Vector_base<std::pair<ezSAT::OpId, std::vector<int>>, std::allocator<std::pair<ezSAT::OpId, std::vector<int>>>>::_Vector_impl_data", ptr %6, i32 0, i32 0
  %8 = load ptr, ptr %7, align 8, !tbaa !83
  %9 = load i64, ptr %4, align 8, !tbaa !97
  %10 = getelementptr inbounds nuw %"struct.std::pair", ptr %8, i64 %9
  ret ptr %10
}

; Function Attrs: mustprogress uwtable
define void @_ZNK5ezSAT17lookup_expressionEiRNS_4OpIdERSt6vectorIiSaIiEE(ptr noundef nonnull align 8 dereferenceable(284) %0, i32 noundef %1, ptr noundef nonnull align 4 dereferenceable(4) %2, ptr noundef nonnull align 8 dereferenceable(24) %3) #0 align 2 {
  %5 = alloca ptr, align 8
  %6 = alloca i32, align 4
  %7 = alloca ptr, align 8
  %8 = alloca ptr, align 8
  store ptr %0, ptr %5, align 8, !tbaa !6
  store i32 %1, ptr %6, align 4, !tbaa !72
  store ptr %2, ptr %7, align 8, !tbaa !114
  store ptr %3, ptr %8, align 8, !tbaa !68
  %9 = load ptr, ptr %5, align 8
  %10 = getelementptr inbounds nuw %class.ezSAT, ptr %9, i32 0, i32 8
  %11 = load i32, ptr %6, align 4, !tbaa !72
  %12 = sub nsw i32 0, %11
  %13 = sub nsw i32 %12, 1
  %14 = sext i32 %13 to i64
  %15 = call noundef nonnull align 8 dereferenceable(32) ptr @_ZNKSt6vectorISt4pairIN5ezSAT4OpIdES_IiSaIiEEESaIS5_EEixEm(ptr noundef nonnull align 8 dereferenceable(24) %10, i64 noundef %14) #18
  %16 = getelementptr inbounds nuw %"struct.std::pair", ptr %15, i32 0, i32 0
  %17 = load i32, ptr %16, align 8, !tbaa !115
  %18 = load ptr, ptr %7, align 8, !tbaa !114
  store i32 %17, ptr %18, align 4, !tbaa !93
  %19 = getelementptr inbounds nuw %class.ezSAT, ptr %9, i32 0, i32 8
  %20 = load i32, ptr %6, align 4, !tbaa !72
  %21 = sub nsw i32 0, %20
  %22 = sub nsw i32 %21, 1
  %23 = sext i32 %22 to i64
  %24 = call noundef nonnull align 8 dereferenceable(32) ptr @_ZNKSt6vectorISt4pairIN5ezSAT4OpIdES_IiSaIiEEESaIS5_EEixEm(ptr noundef nonnull align 8 dereferenceable(24) %19, i64 noundef %23) #18
  %25 = getelementptr inbounds nuw %"struct.std::pair", ptr %24, i32 0, i32 1
  %26 = load ptr, ptr %8, align 8, !tbaa !68
  %27 = call noundef nonnull align 8 dereferenceable(24) ptr @_ZNSt6vectorIiSaIiEEaSERKS1_(ptr noundef nonnull align 8 dereferenceable(24) %26, ptr noundef nonnull align 8 dereferenceable(24) %25)
  ret void
}