; Function Attrs: mustprogress uwtable
define void @_ZNK5ezSAT17lookup_expressionEiRNS_4OpIdERSt6vectorIiSaIiEE(ptr noundef nonnull readonly align 8 captures(none) dereferenceable(284) %0, i32 noundef %1, ptr noundef nonnull writeonly align 4 captures(none) dereferenceable(4) initializes((0, 4)) %2, ptr noundef nonnull align 8 dereferenceable(24) %3) local_unnamed_addr #0 align 2 {
  %5 = getelementptr inbounds nuw i8, ptr %0, i64 136
  %6 = xor i32 %1, -1
  %7 = sext i32 %6 to i64
  %8 = load ptr, ptr %5, align 8, !tbaa !83
  %9 = getelementptr inbounds nuw %"struct.std::pair", ptr %8, i64 %7
  %10 = load i32, ptr %9, align 8, !tbaa !97
  store i32 %10, ptr %2, align 4, !tbaa !106
  %11 = getelementptr inbounds nuw i8, ptr %9, i64 8
  %12 = tail call noundef nonnull align 8 dereferenceable(24) ptr @_ZNSt6vectorIiSaIiEEaSERKS1_(ptr noundef nonnull align 8 dereferenceable(24) %3, ptr noundef nonnull align 8 dereferenceable(24) %11)
  ret void
}